target datalayout = "e-m:e-p270:32:32-p271:32:32-p272:64:64-i64:64-i128:128-f80:128-n8:16:32:64-S128"
target triple = "x86_64-pc-linux-gnu"

@libctx = internal global ptr null, align 8
@.str.14 = private unnamed_addr constant [30 x i8] c"../openssl/test/quicapitest.c\00", align 1
@cert = internal global ptr null, align 8
@privkey = internal global ptr null, align 8
@.str.67 = private unnamed_addr constant [49 x i8] c"qtest_create_quic_connection(qtserv, clientquic)\00", align 1
@.str.130 = private unnamed_addr constant [63 x i8] c"cctx = SSL_CTX_new_ex(libctx, NULL, OSSL_QUIC_client_method())\00", align 1
@.str.131 = private unnamed_addr constant [27 x i8] c"bio = BIO_new(BIO_s_mem())\00", align 1
@.str.134 = private unnamed_addr constant [117 x i8] c"qtest_create_quic_objects(libctx, cctx, NULL, cert, privkey, QTEST_FLAG_FAKE_TIME, &qtserv, &clientquic, NULL, NULL)\00", align 1
@__const.test_new_token.msg = private unnamed_addr constant [19 x i8] c"The Quic Brown Fox\00", align 16
@.str.392 = private unnamed_addr constant [119 x i8] c"qtest_create_quic_objects(libctx, cctx, NULL, cert, privkey, QTEST_FLAG_FAKE_TIME, &qtserv2, &clientquic2, NULL, NULL)\00", align 1
@.str.393 = private unnamed_addr constant [51 x i8] c"qtest_create_quic_connection(qtserv2, clientquic2)\00", align 1
@.str.394 = private unnamed_addr constant [25 x i8] c"find_new_token_data(bio)\00", align 1
@.str.395 = private unnamed_addr constant [26 x i8] c"Received Frame: New token\00", align 1
@.str.396 = private unnamed_addr constant [24 x i8] c"Found New Token Marker\0A\00", align 1
@.str.397 = private unnamed_addr constant [8 x i8] c"Token: \00", align 1
@.str.398 = private unnamed_addr constant [39 x i8] c"Next line did not contain a new token\0A\00", align 1
@.str.399 = private unnamed_addr constant [19 x i8] c"Recorded Token %s\0A\00", align 1
@.str.400 = private unnamed_addr constant [34 x i8] c"Matched next connection token %s\0A\00", align 1

; Function Attrs: nounwind uwtable
define internal i32 @find_new_token_data(ptr noundef %0) #0 {
  %2 = alloca ptr, align 8
  %3 = alloca [1024 x i8], align 16
  %4 = alloca i32, align 4
  %5 = alloca ptr, align 8
  %6 = alloca ptr, align 8
  store ptr %0, ptr %2, align 8, !tbaa !39
  call void @llvm.lifetime.start.p0(i64 1024, ptr %3) #8
  call void @llvm.lifetime.start.p0(i64 4, ptr %4) #8
  store i32 0, ptr %4, align 4, !tbaa !13
  call void @llvm.lifetime.start.p0(i64 8, ptr %5) #8
  call void @llvm.lifetime.start.p0(i64 8, ptr %6) #8
  store ptr null, ptr %6, align 8, !tbaa !11
  br label %7

7:                                                ; preds = %53, %1
  %8 = load i32, ptr %4, align 4, !tbaa !13
  %9 = icmp ne i32 %8, 3
  br i1 %9, label %10, label %18

10:                                               ; preds = %7
  %11 = load i32, ptr %4, align 4, !tbaa !13
  %12 = icmp ne i32 %11, 4
  br i1 %12, label %13, label %18

13:                                               ; preds = %10
  %14 = load ptr, ptr %2, align 8, !tbaa !39
  %15 = getelementptr inbounds [1024 x i8], ptr %3, i64 0, i64 0
  %16 = call i32 @BIO_gets(ptr noundef %14, ptr noundef %15, i32 noundef 1024)
  %17 = icmp sgt i32 %16, 0
  br label %18

18:                                               ; preds = %13, %10, %7
  %19 = phi i1 [ false, %10 ], [ false, %7 ], [ %17, %13 ]
  br i1 %19, label %20, label %54

20:                                               ; preds = %18
  %21 = load i32, ptr %4, align 4, !tbaa !13
  switch i32 %21, label %52 [
    i32 0, label %22
    i32 1, label %28
    i32 2, label %39
  ]

22:                                               ; preds = %20
  %23 = getelementptr inbounds [1024 x i8], ptr %3, i64 0, i64 0
  %24 = call ptr @strstr(ptr noundef %23, ptr noundef @.str.395) #9
  %25 = icmp ne ptr %24, null
  br i1 %25, label %26, label %27

26:                                               ; preds = %22
  store i32 1, ptr %4, align 4, !tbaa !13
  br label %27

27:                                               ; preds = %26, %22
  br label %53

28:                                               ; preds = %20
  call void (ptr, i32, ptr, ...) @test_info(ptr noundef @.str.14, i32 noundef 596, ptr noundef @.str.396)
  %29 = getelementptr inbounds [1024 x i8], ptr %3, i64 0, i64 0
  %30 = call ptr @strstr(ptr noundef %29, ptr noundef @.str.397) #9
  store ptr %30, ptr %5, align 8, !tbaa !11
  %31 = load ptr, ptr %5, align 8, !tbaa !11
  %32 = icmp eq ptr %31, null
  br i1 %32, label %33, label %34

33:                                               ; preds = %28
  call void (ptr, i32, ptr, ...) @test_info(ptr noundef @.str.14, i32 noundef 599, ptr noundef @.str.398)
  store i32 4, ptr %4, align 4, !tbaa !13
  br label %38

34:                                               ; preds = %28
  %35 = load ptr, ptr %5, align 8, !tbaa !11
  %36 = call noalias ptr @strdup(ptr noundef %35) #8
  store ptr %36, ptr %6, align 8, !tbaa !11
  store i32 2, ptr %4, align 4, !tbaa !13
  %37 = load ptr, ptr %6, align 8, !tbaa !11
  call void (ptr, i32, ptr, ...) @test_info(ptr noundef @.str.14, i32 noundef 604, ptr noundef @.str.399, ptr noundef %37)
  br label %38

38:                                               ; preds = %34, %33
  br label %53

39:                                               ; preds = %20
  %40 = getelementptr inbounds [1024 x i8], ptr %3, i64 0, i64 0
  %41 = call ptr @strstr(ptr noundef %40, ptr noundef @.str.397) #9
  store ptr %41, ptr %5, align 8, !tbaa !11
  %42 = load ptr, ptr %5, align 8, !tbaa !11
  %43 = icmp ne ptr %42, null
  br i1 %43, label %44, label %51

44:                                               ; preds = %39
  %45 = load ptr, ptr %5, align 8, !tbaa !11
  %46 = load ptr, ptr %6, align 8, !tbaa !11
  %47 = call i32 @strcmp(ptr noundef %45, ptr noundef %46) #9
  %48 = icmp ne i32 %47, 0
  br i1 %48, label %51, label %49

49:                                               ; preds = %44
  store i32 3, ptr %4, align 4, !tbaa !13
  %50 = load ptr, ptr %5, align 8, !tbaa !11
  call void (ptr, i32, ptr, ...) @test_info(ptr noundef @.str.14, i32 noundef 612, ptr noundef @.str.400, ptr noundef %50)
  br label %51

51:                                               ; preds = %49, %44, %39
  br label %52

52:                                               ; preds = %20, %51
  br label %53

53:                                               ; preds = %52, %38, %27
  br label %7, !llvm.loop !118

54:                                               ; preds = %18
  %55 = load ptr, ptr %6, align 8, !tbaa !11
  call void @CRYPTO_free(ptr noundef %55, ptr noundef @.str.14, i32 noundef 619)
  %56 = load i32, ptr %4, align 4, !tbaa !13
  %57 = icmp eq i32 %56, 3
  %58 = zext i1 %57 to i32
  call void @llvm.lifetime.end.p0(i64 8, ptr %6) #8
  call void @llvm.lifetime.end.p0(i64 8, ptr %5) #8
  call void @llvm.lifetime.end.p0(i64 4, ptr %4) #8
  call void @llvm.lifetime.end.p0(i64 1024, ptr %3) #8
  ret i32 %58
}

; Function Attrs: nounwind uwtable
define internal i32 @test_new_token() #0 {
  %1 = alloca ptr, align 8
  %2 = alloca ptr, align 8
  %3 = alloca ptr, align 8
  %4 = alloca ptr, align 8
  %5 = alloca ptr, align 8
  %6 = alloca i32, align 4
  %7 = alloca ptr, align 8
  %8 = alloca [19 x i8], align 16
  %9 = alloca i64, align 8
  call void @llvm.lifetime.start.p0(i64 8, ptr %1) #8
  store ptr null, ptr %1, align 8, !tbaa !15
  call void @llvm.lifetime.start.p0(i64 8, ptr %2) #8
  store ptr null, ptr %2, align 8, !tbaa !17
  call void @llvm.lifetime.start.p0(i64 8, ptr %3) #8
  store ptr null, ptr %3, align 8, !tbaa !17
  call void @llvm.lifetime.start.p0(i64 8, ptr %4) #8
  store ptr null, ptr %4, align 8, !tbaa !19
  call void @llvm.lifetime.start.p0(i64 8, ptr %5) #8
  store ptr null, ptr %5, align 8, !tbaa !19
  call void @llvm.lifetime.start.p0(i64 4, ptr %6) #8
  store i32 0, ptr %6, align 4, !tbaa !13
  call void @llvm.lifetime.start.p0(i64 8, ptr %7) #8
  store ptr null, ptr %7, align 8, !tbaa !39
  call void @llvm.lifetime.start.p0(i64 19, ptr %8) #8
  call void @llvm.memcpy.p0.p0.i64(ptr align 16 %8, ptr align 16 @__const.test_new_token.msg, i64 19, i1 false)
  call void @llvm.lifetime.start.p0(i64 8, ptr %9) #8
  %10 = load ptr, ptr @libctx, align 8, !tbaa !4
  %11 = call ptr @OSSL_QUIC_client_method()
  %12 = call ptr @SSL_CTX_new_ex(ptr noundef %10, ptr noundef null, ptr noundef %11)
  store ptr %12, ptr %1, align 8, !tbaa !15
  %13 = call i32 @test_ptr(ptr noundef @.str.14, i32 noundef 635, ptr noundef @.str.130, ptr noundef %12)
  %14 = icmp ne i32 %13, 0
  br i1 %14, label %15, label %30

15:                                               ; preds = %0
  %16 = call ptr @BIO_s_mem()
  %17 = call ptr @BIO_new(ptr noundef %16)
  store ptr %17, ptr %7, align 8, !tbaa !39
  %18 = call i32 @test_ptr(ptr noundef @.str.14, i32 noundef 636, ptr noundef @.str.131, ptr noundef %17)
  %19 = icmp ne i32 %18, 0
  br i1 %19, label %20, label %30

20:                                               ; preds = %15
  %21 = load ptr, ptr @libctx, align 8, !tbaa !4
  %22 = load ptr, ptr %1, align 8, !tbaa !15
  %23 = load ptr, ptr @cert, align 8, !tbaa !11
  %24 = load ptr, ptr @privkey, align 8, !tbaa !11
  %25 = call i32 @qtest_create_quic_objects(ptr noundef %21, ptr noundef %22, ptr noundef null, ptr noundef %23, ptr noundef %24, i32 noundef 2, ptr noundef %4, ptr noundef %2, ptr noundef null, ptr noundef null)
  %26 = icmp ne i32 %25, 0
  %27 = zext i1 %26 to i32
  %28 = call i32 @test_true(ptr noundef @.str.14, i32 noundef 641, ptr noundef @.str.134, i32 noundef %27)
  %29 = icmp ne i32 %28, 0
  br i1 %29, label %31, label %30

30:                                               ; preds = %20, %15, %0
  br label %89

31:                                               ; preds = %20
  %32 = load ptr, ptr %2, align 8, !tbaa !17
  call void @SSL_set_msg_callback(ptr noundef %32, ptr noundef @SSL_trace)
  %33 = load ptr, ptr %2, align 8, !tbaa !17
  %34 = load ptr, ptr %7, align 8, !tbaa !39
  %35 = call i64 @SSL_ctrl(ptr noundef %33, i32 noundef 16, i64 noundef 0, ptr noundef %34)
  %36 = load ptr, ptr %4, align 8, !tbaa !19
  %37 = load ptr, ptr %2, align 8, !tbaa !17
  %38 = call i32 @qtest_create_quic_connection(ptr noundef %36, ptr noundef %37)
  %39 = icmp ne i32 %38, 0
  %40 = zext i1 %39 to i32
  %41 = call i32 @test_true(ptr noundef @.str.14, i32 noundef 648, ptr noundef @.str.67, i32 noundef %40)
  %42 = icmp ne i32 %41, 0
  br i1 %42, label %44, label %43

43:                                               ; preds = %31
  br label %89

44:                                               ; preds = %31
  %45 = load ptr, ptr %2, align 8, !tbaa !17
  %46 = getelementptr inbounds [19 x i8], ptr %8, i64 0, i64 0
  %47 = call i32 @SSL_write_ex(ptr noundef %45, ptr noundef %46, i64 noundef 19, ptr noundef %9)
  %48 = icmp ne i32 %47, 0
  br i1 %48, label %50, label %49

49:                                               ; preds = %44
  br label %89

50:                                               ; preds = %44
  %51 = load i64, ptr %9, align 8, !tbaa !21
  %52 = icmp ne i64 %51, 19
  br i1 %52, label %53, label %54

53:                                               ; preds = %50
  br label %89

54:                                               ; preds = %50
  %55 = load ptr, ptr %4, align 8, !tbaa !19
  %56 = call i32 @ossl_quic_tserver_tick(ptr noundef %55)
  %57 = load ptr, ptr @libctx, align 8, !tbaa !4
  %58 = load ptr, ptr %1, align 8, !tbaa !15
  %59 = load ptr, ptr @cert, align 8, !tbaa !11
  %60 = load ptr, ptr @privkey, align 8, !tbaa !11
  %61 = call i32 @qtest_create_quic_objects(ptr noundef %57, ptr noundef %58, ptr noundef null, ptr noundef %59, ptr noundef %60, i32 noundef 2, ptr noundef %5, ptr noundef %3, ptr noundef null, ptr noundef null)
  %62 = icmp ne i32 %61, 0
  %63 = zext i1 %62 to i32
  %64 = call i32 @test_true(ptr noundef @.str.14, i32 noundef 665, ptr noundef @.str.392, i32 noundef %63)
  %65 = icmp ne i32 %64, 0
  br i1 %65, label %67, label %66

66:                                               ; preds = %54
  br label %89

67:                                               ; preds = %54
  %68 = load ptr, ptr %3, align 8, !tbaa !17
  call void @SSL_set_msg_callback(ptr noundef %68, ptr noundef @SSL_trace)
  %69 = load ptr, ptr %3, align 8, !tbaa !17
  %70 = load ptr, ptr %7, align 8, !tbaa !39
  %71 = call i64 @SSL_ctrl(ptr noundef %69, i32 noundef 16, i64 noundef 0, ptr noundef %70)
  %72 = load ptr, ptr %5, align 8, !tbaa !19
  %73 = load ptr, ptr %3, align 8, !tbaa !17
  %74 = call i32 @qtest_create_quic_connection(ptr noundef %72, ptr noundef %73)
  %75 = icmp ne i32 %74, 0
  %76 = zext i1 %75 to i32
  %77 = call i32 @test_true(ptr noundef @.str.14, i32 noundef 672, ptr noundef @.str.393, i32 noundef %76)
  %78 = icmp ne i32 %77, 0
  br i1 %78, label %80, label %79

79:                                               ; preds = %67
  br label %89

80:                                               ; preds = %67
  %81 = load ptr, ptr %7, align 8, !tbaa !39
  %82 = call i32 @find_new_token_data(ptr noundef %81)
  %83 = icmp ne i32 %82, 0
  %84 = zext i1 %83 to i32
  %85 = call i32 @test_true(ptr noundef @.str.14, i32 noundef 676, ptr noundef @.str.394, i32 noundef %84)
  %86 = icmp ne i32 %85, 0
  br i1 %86, label %88, label %87

87:                                               ; preds = %80
  br label %89

88:                                               ; preds = %80
  store i32 1, ptr %6, align 4, !tbaa !13
  br label %89

89:                                               ; preds = %88, %87, %79, %66, %53, %49, %43, %30
  %90 = load ptr, ptr %4, align 8, !tbaa !19
  call void @ossl_quic_tserver_free(ptr noundef %90)
  %91 = load ptr, ptr %5, align 8, !tbaa !19
  call void @ossl_quic_tserver_free(ptr noundef %91)
  %92 = load ptr, ptr %2, align 8, !tbaa !17
  call void @SSL_free(ptr noundef %92)
  %93 = load ptr, ptr %3, align 8, !tbaa !17
  call void @SSL_free(ptr noundef %93)
  %94 = load ptr, ptr %1, align 8, !tbaa !15
  call void @SSL_CTX_free(ptr noundef %94)
  %95 = load ptr, ptr %7, align 8, !tbaa !39
  %96 = call i32 @BIO_free(ptr noundef %95)
  %97 = load i32, ptr %6, align 4, !tbaa !13
  call void @llvm.lifetime.end.p0(i64 8, ptr %9) #8
  call void @llvm.lifetime.end.p0(i64 19, ptr %8) #8
  call void @llvm.lifetime.end.p0(i64 8, ptr %7) #8
  call void @llvm.lifetime.end.p0(i64 4, ptr %6) #8
  call void @llvm.lifetime.end.p0(i64 8, ptr %5) #8
  call void @llvm.lifetime.end.p0(i64 8, ptr %4) #8
  call void @llvm.lifetime.end.p0(i64 8, ptr %3) #8
  call void @llvm.lifetime.end.p0(i64 8, ptr %2) #8
  call void @llvm.lifetime.end.p0(i64 8, ptr %1) #8
  ret i32 %97
}