; Function Attrs: nounwind uwtable
define internal range(i32 0, 2) i32 @test_new_token() #1 {
  %1 = alloca [1024 x i8], align 16
  %2 = alloca ptr, align 8
  %3 = alloca ptr, align 8
  %4 = alloca ptr, align 8
  %5 = alloca ptr, align 8
  %6 = alloca [19 x i8], align 16
  %7 = alloca i64, align 8
  call void @llvm.lifetime.start.p0(i64 8, ptr nonnull %2) #10
  store ptr null, ptr %2, align 8, !tbaa !13
  call void @llvm.lifetime.start.p0(i64 8, ptr nonnull %3) #10
  store ptr null, ptr %3, align 8, !tbaa !13
  call void @llvm.lifetime.start.p0(i64 8, ptr nonnull %4) #10
  store ptr null, ptr %4, align 8, !tbaa !15
  call void @llvm.lifetime.start.p0(i64 8, ptr nonnull %5) #10
  store ptr null, ptr %5, align 8, !tbaa !15
  call void @llvm.lifetime.start.p0(i64 19, ptr nonnull %6) #10
  call void @llvm.memcpy.p0.p0.i64(ptr noundef nonnull align 16 dereferenceable(19) %6, ptr noundef nonnull align 16 dereferenceable(19) @__const.test_new_token.msg, i64 19, i1 false)
  call void @llvm.lifetime.start.p0(i64 8, ptr nonnull %7) #10
  %8 = load ptr, ptr @libctx, align 8, !tbaa !4
  %9 = tail call ptr @OSSL_QUIC_client_method() #10
  %10 = tail call ptr @SSL_CTX_new_ex(ptr noundef %8, ptr noundef null, ptr noundef %9) #10
  %11 = tail call i32 @test_ptr(ptr noundef nonnull @.str.14, i32 noundef 635, ptr noundef nonnull @.str.130, ptr noundef %10) #10
  %.not = icmp eq i32 %11, 0
  br i1 %.not, label %80, label %12

12:                                               ; preds = %0
  %13 = tail call ptr @BIO_s_mem() #10
  %14 = tail call ptr @BIO_new(ptr noundef %13) #10
  %15 = tail call i32 @test_ptr(ptr noundef nonnull @.str.14, i32 noundef 636, ptr noundef nonnull @.str.131, ptr noundef %14) #10
  %.not9 = icmp eq i32 %15, 0
  br i1 %.not9, label %80, label %16

16:                                               ; preds = %12
  %17 = load ptr, ptr @libctx, align 8, !tbaa !4
  %18 = load ptr, ptr @cert, align 8, !tbaa !11
  %19 = load ptr, ptr @privkey, align 8, !tbaa !11
  %20 = call i32 @qtest_create_quic_objects(ptr noundef %17, ptr noundef %10, ptr noundef null, ptr noundef %18, ptr noundef %19, i32 noundef 2, ptr noundef nonnull %4, ptr noundef nonnull %2, ptr noundef null, ptr noundef null) #10
  %21 = icmp ne i32 %20, 0
  %22 = zext i1 %21 to i32
  %23 = call i32 @test_true(ptr noundef nonnull @.str.14, i32 noundef 641, ptr noundef nonnull @.str.134, i32 noundef %22) #10
  %.not10 = icmp eq i32 %23, 0
  br i1 %.not10, label %80, label %24

24:                                               ; preds = %16
  %25 = load ptr, ptr %2, align 8, !tbaa !13
  call void @SSL_set_msg_callback(ptr noundef %25, ptr noundef nonnull @SSL_trace) #10
  %26 = load ptr, ptr %2, align 8, !tbaa !13
  %27 = call i64 @SSL_ctrl(ptr noundef %26, i32 noundef 16, i64 noundef 0, ptr noundef %14) #10
  %28 = load ptr, ptr %4, align 8, !tbaa !15
  %29 = load ptr, ptr %2, align 8, !tbaa !13
  %30 = call i32 @qtest_create_quic_connection(ptr noundef %28, ptr noundef %29) #10
  %31 = icmp ne i32 %30, 0
  %32 = zext i1 %31 to i32
  %33 = call i32 @test_true(ptr noundef nonnull @.str.14, i32 noundef 648, ptr noundef nonnull @.str.67, i32 noundef %32) #10
  %.not11 = icmp eq i32 %33, 0
  br i1 %.not11, label %80, label %34

34:                                               ; preds = %24
  %35 = load ptr, ptr %2, align 8, !tbaa !13
  %36 = call i32 @SSL_write_ex(ptr noundef %35, ptr noundef nonnull %6, i64 noundef 19, ptr noundef nonnull %7) #10
  %37 = icmp eq i32 %36, 0
  %38 = load i64, ptr %7, align 8
  %39 = icmp ne i64 %38, 19
  %or.cond = select i1 %37, i1 true, i1 %39
  br i1 %or.cond, label %80, label %40

40:                                               ; preds = %34
  %41 = load ptr, ptr %4, align 8, !tbaa !15
  %42 = call i32 @ossl_quic_tserver_tick(ptr noundef %41) #10
  %43 = load ptr, ptr @libctx, align 8, !tbaa !4
  %44 = load ptr, ptr @cert, align 8, !tbaa !11
  %45 = load ptr, ptr @privkey, align 8, !tbaa !11
  %46 = call i32 @qtest_create_quic_objects(ptr noundef %43, ptr noundef %10, ptr noundef null, ptr noundef %44, ptr noundef %45, i32 noundef 2, ptr noundef nonnull %5, ptr noundef nonnull %3, ptr noundef null, ptr noundef null) #10
  %47 = icmp ne i32 %46, 0
  %48 = zext i1 %47 to i32
  %49 = call i32 @test_true(ptr noundef nonnull @.str.14, i32 noundef 665, ptr noundef nonnull @.str.392, i32 noundef %48) #10
  %.not12 = icmp eq i32 %49, 0
  br i1 %.not12, label %80, label %50

50:                                               ; preds = %40
  %51 = load ptr, ptr %3, align 8, !tbaa !13
  call void @SSL_set_msg_callback(ptr noundef %51, ptr noundef nonnull @SSL_trace) #10
  %52 = load ptr, ptr %3, align 8, !tbaa !13
  %53 = call i64 @SSL_ctrl(ptr noundef %52, i32 noundef 16, i64 noundef 0, ptr noundef %14) #10
  %54 = load ptr, ptr %5, align 8, !tbaa !15
  %55 = load ptr, ptr %3, align 8, !tbaa !13
  %56 = call i32 @qtest_create_quic_connection(ptr noundef %54, ptr noundef %55) #10
  %57 = icmp ne i32 %56, 0
  %58 = zext i1 %57 to i32
  %59 = call i32 @test_true(ptr noundef nonnull @.str.14, i32 noundef 672, ptr noundef nonnull @.str.393, i32 noundef %58) #10
  %.not13 = icmp eq i32 %59, 0
  br i1 %.not13, label %80, label %60

60:                                               ; preds = %50
  call void @llvm.lifetime.start.p0(i64 1024, ptr nonnull %1) #10
  %61 = call i32 @BIO_gets(ptr noundef %14, ptr noundef nonnull %1, i32 noundef 1024) #10
  %62 = icmp sgt i32 %61, 0
  br i1 %62, label %.lr.ph, label %find_new_token_data.exit

.lr.ph:                                           ; preds = %60, %76
  %.01319.i20 = phi i32 [ %.114.i, %76 ], [ 0, %60 ]
  %.020.i19 = phi ptr [ %.1.i, %76 ], [ null, %60 ]
  switch i32 %.01319.i20, label %default.unreachable24 [
    i32 0, label %63
    i32 1, label %65
    i32 2, label %71
  ]

63:                                               ; preds = %.lr.ph
  %64 = call ptr @strstr(ptr noundef nonnull dereferenceable(1) %1, ptr noundef nonnull dereferenceable(1) @.str.395) #11
  %.not18.i = icmp ne ptr %64, null
  %spec.select.i = zext i1 %.not18.i to i32
  br label %76

65:                                               ; preds = %.lr.ph
  call void (ptr, i32, ptr, ...) @test_info(ptr noundef nonnull @.str.14, i32 noundef 596, ptr noundef nonnull @.str.396) #10
  %66 = call ptr @strstr(ptr noundef nonnull dereferenceable(1) %1, ptr noundef nonnull dereferenceable(1) @.str.397) #11
  %67 = icmp eq ptr %66, null
  br i1 %67, label %68, label %69

68:                                               ; preds = %65
  call void (ptr, i32, ptr, ...) @test_info(ptr noundef nonnull @.str.14, i32 noundef 599, ptr noundef nonnull @.str.398) #10
  br label %find_new_token_data.exit

69:                                               ; preds = %65
  %70 = call noalias ptr @strdup(ptr noundef nonnull %66) #10
  call void (ptr, i32, ptr, ...) @test_info(ptr noundef nonnull @.str.14, i32 noundef 604, ptr noundef nonnull @.str.399, ptr noundef %70) #10
  br label %76

71:                                               ; preds = %.lr.ph
  %72 = call ptr @strstr(ptr noundef nonnull dereferenceable(1) %1, ptr noundef nonnull dereferenceable(1) @.str.397) #11
  %.not.i = icmp eq ptr %72, null
  br i1 %.not.i, label %76, label %73

73:                                               ; preds = %71
  %74 = call i32 @strcmp(ptr noundef nonnull dereferenceable(1) %72, ptr noundef nonnull dereferenceable(1) %.020.i19) #11
  %.not17.i = icmp eq i32 %74, 0
  br i1 %.not17.i, label %75, label %76

75:                                               ; preds = %73
  call void (ptr, i32, ptr, ...) @test_info(ptr noundef nonnull @.str.14, i32 noundef 612, ptr noundef nonnull @.str.400, ptr noundef nonnull %72) #10
  br label %find_new_token_data.exit

76:                                               ; preds = %73, %71, %69, %63
  %.114.i = phi i32 [ 2, %73 ], [ 2, %71 ], [ 2, %69 ], [ %spec.select.i, %63 ]
  %.1.i = phi ptr [ %.020.i19, %73 ], [ %.020.i19, %71 ], [ %70, %69 ], [ %.020.i19, %63 ]
  %77 = call i32 @BIO_gets(ptr noundef %14, ptr noundef nonnull %1, i32 noundef 1024) #10
  %78 = icmp sgt i32 %77, 0
  br i1 %78, label %.lr.ph, label %find_new_token_data.exit, !llvm.loop !68

default.unreachable24:                            ; preds = %.lr.ph
  unreachable

find_new_token_data.exit:                         ; preds = %76, %60, %68, %75
  %.020.i18 = phi ptr [ %.020.i19, %68 ], [ %.020.i19, %75 ], [ null, %60 ], [ %.1.i, %76 ]
  %.013.lcssa.i = phi i32 [ 0, %68 ], [ 1, %75 ], [ 0, %60 ], [ 0, %76 ]
  call void @CRYPTO_free(ptr noundef %.020.i18, ptr noundef nonnull @.str.14, i32 noundef 619) #10
  call void @llvm.lifetime.end.p0(i64 1024, ptr nonnull %1) #10
  %79 = call i32 @test_true(ptr noundef nonnull @.str.14, i32 noundef 676, ptr noundef nonnull @.str.394, i32 noundef %.013.lcssa.i) #10
  %.not14 = icmp ne i32 %79, 0
  %spec.select = zext i1 %.not14 to i32
  br label %80

80:                                               ; preds = %find_new_token_data.exit, %50, %40, %34, %24, %0, %12, %16
  %.08 = phi i32 [ 0, %34 ], [ 0, %50 ], [ 0, %40 ], [ 0, %24 ], [ 0, %16 ], [ 0, %12 ], [ 0, %0 ], [ %spec.select, %find_new_token_data.exit ]
  %.0 = phi ptr [ %14, %34 ], [ %14, %50 ], [ %14, %40 ], [ %14, %24 ], [ %14, %16 ], [ %14, %12 ], [ null, %0 ], [ %14, %find_new_token_data.exit ]
  %81 = load ptr, ptr %4, align 8, !tbaa !15
  call void @ossl_quic_tserver_free(ptr noundef %81) #10
  %82 = load ptr, ptr %5, align 8, !tbaa !15
  call void @ossl_quic_tserver_free(ptr noundef %82) #10
  %83 = load ptr, ptr %2, align 8, !tbaa !13
  call void @SSL_free(ptr noundef %83) #10
  %84 = load ptr, ptr %3, align 8, !tbaa !13
  call void @SSL_free(ptr noundef %84) #10
  call void @SSL_CTX_free(ptr noundef %10) #10
  %85 = call i32 @BIO_free(ptr noundef %.0) #10
  call void @llvm.lifetime.end.p0(i64 8, ptr nonnull %7) #10
  call void @llvm.lifetime.end.p0(i64 19, ptr nonnull %6) #10
  call void @llvm.lifetime.end.p0(i64 8, ptr nonnull %5) #10
  call void @llvm.lifetime.end.p0(i64 8, ptr nonnull %4) #10
  call void @llvm.lifetime.end.p0(i64 8, ptr nonnull %3) #10
  call void @llvm.lifetime.end.p0(i64 8, ptr nonnull %2) #10
  ret i32 %.08
}